target datalayout = "e-m:e-p270:32:32-p271:32:32-p272:64:64-i64:64-i128:128-f80:128-n8:16:32:64-S128"
target triple = "x86_64-pc-linux-gnu"

%struct._GtkTextIter = type { ptr, ptr, i32, i32, i32, i32, i32, i32, ptr, ptr, i32, i32, i32, ptr }

@.str = private unnamed_addr constant [13 x i8] c"local-dialog\00", align 1
@.str.178 = private unnamed_addr constant [45 x i8] c"plugins/lighttable/thumbnail_tooltip_pattern\00", align 1

; Function Attrs: nounwind uwtable
define internal void @preferences_response_callback_idm1149(ptr noundef %0, i32 noundef %1, ptr noundef %2) #0 {
  %4 = alloca ptr, align 8
  %5 = alloca i32, align 4
  %6 = alloca ptr, align 8
  %7 = alloca i32, align 4
  %8 = alloca i32, align 4
  %9 = alloca %struct._GtkTextIter, align 8
  %10 = alloca %struct._GtkTextIter, align 8
  %11 = alloca ptr, align 8
  store ptr %0, ptr %4, align 8, !tbaa !62
  store i32 %1, ptr %5, align 4, !tbaa !57
  store ptr %2, ptr %6, align 8, !tbaa !6
  call void @llvm.lifetime.start.p0(i64 4, ptr %7) #10
  %12 = load ptr, ptr %4, align 8, !tbaa !62
  %13 = call ptr @g_type_check_instance_cast(ptr noundef %12, i64 noundef 80)
  %14 = call ptr @g_object_get_data(ptr noundef %13, ptr noundef @.str)
  %15 = ptrtoint ptr %14 to i64
  %16 = trunc i64 %15 to i32
  store i32 %16, ptr %7, align 4, !tbaa !57
  %17 = load i32, ptr %7, align 4, !tbaa !57
  %18 = icmp ne i32 %17, 0
  br i1 %18, label %19, label %28

19:                                               ; preds = %3
  %20 = load i32, ptr %5, align 4, !tbaa !57
  %21 = icmp eq i32 %20, -1
  br i1 %21, label %22, label %23

22:                                               ; preds = %19
  store i32 1, ptr %8, align 4
  br label %48

23:                                               ; preds = %19
  %24 = load i32, ptr %5, align 4, !tbaa !57
  %25 = icmp eq i32 %24, -4
  br i1 %25, label %26, label %27

26:                                               ; preds = %23
  store i32 1, ptr %8, align 4
  br label %48

27:                                               ; preds = %23
  br label %33

28:                                               ; preds = %3
  %29 = load i32, ptr %5, align 4, !tbaa !57
  %30 = icmp ne i32 %29, -4
  br i1 %30, label %31, label %32

31:                                               ; preds = %28
  store i32 1, ptr %8, align 4
  br label %48

32:                                               ; preds = %28
  br label %33

33:                                               ; preds = %32, %27
  %34 = load ptr, ptr %4, align 8, !tbaa !62
  %35 = call i64 @gtk_widget_get_type() #11
  %36 = call ptr @g_type_check_instance_cast(ptr noundef %34, i64 noundef %35)
  call void @gtk_widget_set_can_focus(ptr noundef %36, i32 noundef 1)
  %37 = load ptr, ptr %4, align 8, !tbaa !62
  %38 = call i64 @gtk_widget_get_type() #11
  %39 = call ptr @g_type_check_instance_cast(ptr noundef %37, i64 noundef %38)
  call void @gtk_widget_grab_focus(ptr noundef %39)
  call void @llvm.lifetime.start.p0(i64 80, ptr %9) #10
  call void @llvm.lifetime.start.p0(i64 80, ptr %10) #10
  call void @llvm.lifetime.start.p0(i64 8, ptr %11) #10
  %40 = load ptr, ptr %6, align 8, !tbaa !6
  %41 = call i64 @gtk_text_view_get_type() #11
  %42 = call ptr @g_type_check_instance_cast(ptr noundef %40, i64 noundef %41)
  %43 = call ptr @gtk_text_view_get_buffer(ptr noundef %42)
  store ptr %43, ptr %11, align 8, !tbaa !99
  %44 = load ptr, ptr %11, align 8, !tbaa !99
  call void @gtk_text_buffer_get_start_iter(ptr noundef %44, ptr noundef %9)
  %45 = load ptr, ptr %11, align 8, !tbaa !99
  call void @gtk_text_buffer_get_end_iter(ptr noundef %45, ptr noundef %10)
  %46 = load ptr, ptr %11, align 8, !tbaa !99
  %47 = call ptr @gtk_text_buffer_get_text(ptr noundef %46, ptr noundef %9, ptr noundef %10, i32 noundef 0)
  call void @dt_conf_set_string(ptr noundef @.str.178, ptr noundef %47)
  call void @llvm.lifetime.end.p0(i64 8, ptr %11) #10
  call void @llvm.lifetime.end.p0(i64 80, ptr %10) #10
  call void @llvm.lifetime.end.p0(i64 80, ptr %9) #10
  store i32 0, ptr %8, align 4
  br label %48

48:                                               ; preds = %33, %31, %26, %22
  call void @llvm.lifetime.end.p0(i64 4, ptr %7) #10
  %49 = load i32, ptr %8, align 4
  switch i32 %49, label %51 [
    i32 0, label %50
    i32 1, label %50
  ]

50:                                               ; preds = %48, %48
  ret void

51:                                               ; preds = %48
  unreachable
}